(lp0
(dp1
Vdomain
p2
V.twitter.com
p3
sVname
p4
Vguest_id
p5
sVvalue
p6
Vv1%3A143071189488481268
p7
sVexpiry
p8
I1493783897
sVpath
p9
V/
p10
sVsecure
p11
I00
sa(dp12
Vdomain
p13
V.twitter.com
p14
sVname
p15
V_twitter_sess
p16
sVvalue
p17
VBAh7CSIKZmxhc2hJQzonQWN0aW9uQ29udHJvbGxlcjo6Rmxhc2g6OkZsYXNo%250ASGFzaHsABjoKQHVzZWR7ADoPY3JlYXRlZF9hdGwrCBwFEx1NAToMY3NyZl9p%250AZCIlMGMwOTU0ZmNlYzdkMDQwOTJlNTlkNjNmNzBmYmYzODk6B2lkIiVhZThm%250AMWFlODE0OTUxNmRmZjE3MjM4ODg0ODQ4MDk1MQ%253D%253D--633e1250c8c0077cb3abd09431e84d66e8fe7a8b
p18
sVexpiry
p19
NsVpath
p20
g10
sVsecure
p21
I01
sa(dp22
Vdomain
p23
V.twitter.com
p24
sVname
p25
V_ga
p26
sVvalue
p27
VGA1.2.856238344.1430711899
p28
sVexpiry
p29
I1493783898
sVpath
p30
g10
sVsecure
p31
I00
sa(dp32
Vdomain
p33
V.twitter.com
p34
sVname
p35
V_gat
p36
sVvalue
p37
V1
p38
sVexpiry
p39
I1430712498
sVpath
p40
g10
sVsecure
p41
I00
sa(dp42
Vdomain
p43
V.statcounter.com
p44
sVname
p45
V__cfduid
p46
sVvalue
p47
Vdaa34233a66fec92b3ffe558d37c6e87b1430711897
p48
sVexpiry
p49
I1462247899
sVpath
p50
g10
sVsecure
p51
I00
sa(dp52
Vdomain
p53
V.statcounter.com
p54
sVname
p55
VPHPSESSID
p56
sVvalue
p57
V00m1afgnr7pgs0ksvd8qchi8d2
p58
sVexpiry
p59
NsVpath
p60
g10
sVsecure
p61
I00
sa(dp62
Vdomain
p63
V.statcounter.com
p64
sVname
p65
Vlanding
p66
sVvalue
p67
Vhttp%3A//statcounter.com/|||
p68
sVexpiry
p69
I1462247900
sVpath
p70
g10
sVsecure
p71
I00
sa(dp72
Vdomain
p73
V.statcounter.com
p74
sVname
p75
Vis_unique
p76
sVvalue
p77
Vsc204609.1430711898.0
p78
sVexpiry
p79
I1588391900
sVpath
p80
g10
sVsecure
p81
I00
sa(dp82
Vdomain
p83
V.statcounter.com
p84
sVname
p85
Vis_visitor_unique
p86
sVvalue
p87
V1430711898191506742
p88
sVexpiry
p89
I1493783900
sVpath
p90
g10
sVsecure
p91
I00
sa(dp92
Vdomain
p93
Vwordpress.org
p94
sVname
p95
VdevicePixelRatio
p96
sVvalue
p97
V2
p98
sVexpiry
p99
NsVpath
p100
g10
sVsecure
p101
I00
sa(dp102
Vdomain
p103
V.wordpress.org
p104
sVname
p105
V__utmt
p106
sVvalue
p107
g38
sVexpiry
p108
I1430712502
sVpath
p109
g10
sVsecure
p110
I00
sa(dp111
Vdomain
p112
V.wordpress.org
p113
sVname
p114
V__utma
p115
sVvalue
p116
V213718802.1427515069.1430711903.1430711903.1430711903.1
p117
sVexpiry
p118
I1493783902
sVpath
p119
g10
sVsecure
p120
I00
sa(dp121
Vdomain
p122
V.wordpress.org
p123
sVname
p124
V__utmb
p125
sVvalue
p126
V213718802.1.10.1430711903
p127
sVexpiry
p128
I1430713702
sVpath
p129
g10
sVsecure
p130
I00
sa(dp131
Vdomain
p132
V.wordpress.org
p133
sVname
p134
V__utmc
p135
sVvalue
p136
V213718802
p137
sVexpiry
p138
NsVpath
p139
g10
sVsecure
p140
I00
sa(dp141
Vdomain
p142
V.wordpress.org
p143
sVname
p144
V__utmz
p145
sVvalue
p146
V213718802.1430711903.1.1.utmcsr=(direct)|utmccn=(direct)|utmcmd=(none)
p147
sVexpiry
p148
I1446479902
sVpath
p149
g10
sVsecure
p150
I00
sa(dp151
Vdomain
p152
V.wordpress.org
p153
sVname
p154
V__qca
p155
sVvalue
p156
VP0-1602748377-1430711902773
p157
sVexpiry
p158
I1478047291
sVpath
p159
g10
sVsecure
p160
I00
sa(dp161
Vdomain
p162
V.google.com
p163
sVname
p164
VNID
p165
sVvalue
p166
V67=wcnqjDznkKaBAwzhzrNFmY7yvC9X6a-Ro9qeMIjOu_gz0ioJPRR0qHDl68C7_Sovt87UtjFbS-ou5vJEGJBcWM6SKv9tYgBXJDtxyyq0mPmUegxz-xb7p3WCH6T8r2w6
p167
sVexpiry
p168
I1446523102
sVpath
p169
g10
sVsecure
p170
I00
sa(dp171
Vdomain
p172
Vaccounts.google.com
p173
sVname
p174
VGAPS
p175
sVvalue
p176
V1:jQPB5ESmaWdtQNIHOak4W0O1SRHmeg:eu7oJuPQCUFwbQrf
p177
sVexpiry
p178
I1493783905
sVpath
p179
g10
sVsecure
p180
I01
sa(dp181
Vdomain
p182
Vaccounts.google.com
p183
sVname
p184
VGALX
p185
sVvalue
p186
Vx7hziQO-6ho
p187
sVexpiry
p188
NsVpath
p189
g10
sVsecure
p190
I01
sa(dp191
Vdomain
p192
Vwww.joomla.org
p193
sVname
p194
V912b085b9213021200bd7086c0dbccc9
p195
sVvalue
p196
V933b86012807e7a4f575b8b6548b808f
p197
sVexpiry
p198
NsVpath
p199
g10
sVsecure
p200
I00
sa(dp201
Vdomain
p202
V.joomla.org
p203
sVname
p204
V__utmt
p205
sVvalue
p206
g38
sVexpiry
p207
I1430712507
sVpath
p208
g10
sVsecure
p209
I00
sa(dp210
Vdomain
p211
V.joomla.org
p212
sVname
p213
V__utma
p214
sVvalue
p215
V11952431.1391686612.1430711908.1430711908.1430711908.1
p216
sVexpiry
p217
I1493783907
sVpath
p218
g10
sVsecure
p219
I00
sa(dp220
Vdomain
p221
V.joomla.org
p222
sVname
p223
V__utmb
p224
sVvalue
p225
V11952431.1.10.1430711908
p226
sVexpiry
p227
I1430713707
sVpath
p228
g10
sVsecure
p229
I00
sa(dp230
Vdomain
p231
V.joomla.org
p232
sVname
p233
V__utmc
p234
sVvalue
p235
V11952431
p236
sVexpiry
p237
NsVpath
p238
g10
sVsecure
p239
I00
sa(dp240
Vdomain
p241
V.joomla.org
p242
sVname
p243
V__utmz
p244
sVvalue
p245
V11952431.1430711908.1.1.utmcsr=(direct)|utmccn=(direct)|utmcmd=(none)
p246
sVexpiry
p247
I1446479907
sVpath
p248
g10
sVsecure
p249
I00
sa(dp250
Vdomain
p251
V.joomla.org
p252
sVname
p253
V__CG
p254
sVvalue
p255
Vu%3A5265846443870691000%2Cs%3A703985617%2Ct%3A1430711907899%2Cc%3A1%2Ck%3Awww.joomla.org/22/22/38%2Cf%3A1%2Ci%3A1
p256
sVexpiry
p257
I1462247907
sVpath
p258
g10
sVsecure
p259
I00
sa(dp260
Vdomain
p261
V.vimeo.com
p262
sVname
p263
Vvuid
p264
sVvalue
p265
V1946258467.1200828758
p266
sVexpiry
p267
I1462247909
sVpath
p268
g10
sVsecure
p269
I00
sa(dp270
Vdomain
p271
V.vimeo.com
p272
sVname
p273
V__utma
p274
sVvalue
p275
V18302654.1111937663.1430711910.1430711910.1430711910.1
p276
sVexpiry
p277
I1493783910
sVpath
p278
g10
sVsecure
p279
I00
sa(dp280
Vdomain
p281
V.vimeo.com
p282
sVname
p283
V__utmb
p284
sVvalue
p285
V18302654.1.10.1430711910
p286
sVexpiry
p287
I1430713710
sVpath
p288
g10
sVsecure
p289
I00
sa(dp290
Vdomain
p291
V.vimeo.com
p292
sVname
p293
V__utmc
p294
sVvalue
p295
V18302654
p296
sVexpiry
p297
NsVpath
p298
g10
sVsecure
p299
I00
sa(dp300
Vdomain
p301
V.vimeo.com
p302
sVname
p303
V__utmz
p304
sVvalue
p305
V18302654.1430711910.1.1.utmcsr=(direct)|utmccn=(direct)|utmcmd=(none)
p306
sVexpiry
p307
I1446479910
sVpath
p308
g10
sVsecure
p309
I00
sa(dp310
Vdomain
p311
V.vimeo.com
p312
sVname
p313
V__utmv
p314
sVvalue
p315
V18302654.|3=ms=0=1^10=vuid=1946258467.1200828758=1
p316
sVexpiry
p317
I1493783910
sVpath
p318
g10
sVsecure
p319
I00
sa(dp320
Vdomain
p321
V.yahoo.com
p322
sVname
p323
VB
p324
sVvalue
p325
Vci7v4d1akdrj5&b=3&s=qi
p326
sVexpiry
p327
I1493870311
sVpath
p328
g10
sVsecure
p329
I00
sa(dp330
Vdomain
p331
Vwww.yahoo.com
p332
sVname
p333
VFBJSC
p334
sVvalue
p335
V1430711909
p336
sVexpiry
p337
NsVpath
p338
g10
sVsecure
p339
I00
sa(dp340
Vdomain
p341
V.www.yahoo.com
p342
sVname
p343
Vhpc
p344
sVvalue
p345
Vd=Lxf.DvQfwVERTx5jmOT3MBD22OA2jn1Ywe0sLUzOkmoe5_1CsQhJWcs7jhdQbSKrsTcovljxAfEFZQon7veBFEKGBZJQT2uOBVQtUPN2K0QLRSdlBNgQe5jHmr3zd.OFkexZv1_gij5UGNQ2dYaZoWJtLjrhmmt9.O73_BAhIPwVjjwdz4hBYtL9.kW481xKX.Uxj7k-&v=2
p346
sVexpiry
p347
I1462247909
sVpath
p348
g10
sVsecure
p349
I00
sa(dp350
Vdomain
p351
V.www.yahoo.com
p352
sVname
p353
Vfpt
p354
sVvalue
p355
Vd=H3getYDRed2.V9CcRGE9G7HJxPtpGDUE6Ot.bL7WFyDOfTusCtRycPaksUqFXnyvsVtoToOYS2OE7w2m5d2aT_XDbRjy&v=1
p356
sVexpiry
p357
NsVpath
p358
g10
sVsecure
p359
I00
sa(dp360
Vdomain
p361
V.yahoo.com
p362
sVname
p363
VCRZY
p364
sVvalue
p365
V%7B%223391152051_20150503%22%3A%7B%22expires%22%3A1430884712451%2C%22data%22%3A%7B%22nv%22%3A1%2C%22bn%22%3A0%2C%22collapsed%22%3A0%7D%7D%7D
p366
sVexpiry
p367
I1430884712
sVpath
p368
g10
sVsecure
p369
I00
sa(dp370
Vdomain
p371
V.yahoo.com
p372
sVname
p373
VHP
p374
sVvalue
p375
V0
p376
sVexpiry
p377
NsVpath
p378
g10
sVsecure
p379
I00
sa.