(lp0
(dp1
Vdomain
p2
V.twitter.com
p3
sVname
p4
Vguest_id
p5
sVvalue
p6
Vv1%3A143075007976939136
p7
sVexpiry
p8
I1493822079
sVpath
p9
V/
p10
sVsecure
p11
I00
sa(dp12
Vdomain
p13
V.twitter.com
p14
sVname
p15
V_twitter_sess
p16
sVvalue
p17
VBAh7CSIKZmxhc2hJQzonQWN0aW9uQ29udHJvbGxlcjo6Rmxhc2g6OkZsYXNo%250ASGFzaHsABjoKQHVzZWR7ADoPY3JlYXRlZF9hdGwrCH26WR9NAToMY3NyZl9p%250AZCIlODNhNDM0NzM5YTFlNzc3MTA4MTk3MGJjZjkxNzIwYjk6B2lkIiU3NmZi%250ANDA3Y2NkNTY2MGE4NWFjMGM3MThmOGFiZmRkNw%253D%253D--d100c5f2e24d5105c649a5bc6379226322d14e56
p18
sVexpiry
p19
NsVpath
p20
g10
sVsecure
p21
I01
sa(dp22
Vdomain
p23
V.twitter.com
p24
sVname
p25
V_ga
p26
sVvalue
p27
VGA1.2.1621429353.1430750089
p28
sVexpiry
p29
I1493822088
sVpath
p30
g10
sVsecure
p31
I00
sa(dp32
Vdomain
p33
V.twitter.com
p34
sVname
p35
V_gat
p36
sVvalue
p37
V1
p38
sVexpiry
p39
I1430750688
sVpath
p40
g10
sVsecure
p41
I00
sa(dp42
Vdomain
p43
V.statcounter.com
p44
sVname
p45
V__cfduid
p46
sVvalue
p47
Vd13584aa9db5756e9e867778a9c9254281430750091
p48
sVexpiry
p49
I1462286091
sVpath
p50
g10
sVsecure
p51
I00
sa(dp52
Vdomain
p53
V.statcounter.com
p54
sVname
p55
VPHPSESSID
p56
sVvalue
p57
V7c062c88a35ccqcojgh8q9mqd4
p58
sVexpiry
p59
NsVpath
p60
g10
sVsecure
p61
I00
sa(dp62
Vdomain
p63
V.statcounter.com
p64
sVname
p65
Vlanding
p66
sVvalue
p67
Vhttp%3A//statcounter.com/|||
p68
sVexpiry
p69
I1462286092
sVpath
p70
g10
sVsecure
p71
I00
sa(dp72
Vdomain
p73
V.statcounter.com
p74
sVname
p75
Vis_unique
p76
sVvalue
p77
Vsc204609.1430750092.0
p78
sVexpiry
p79
I1588430092
sVpath
p80
g10
sVsecure
p81
I00
sa(dp82
Vdomain
p83
V.statcounter.com
p84
sVname
p85
Vis_visitor_unique
p86
sVvalue
p87
V1430750092138741138
p88
sVexpiry
p89
I1493822092
sVpath
p90
g10
sVsecure
p91
I00
sa(dp92
Vdomain
p93
Vwordpress.org
p94
sVname
p95
VdevicePixelRatio
p96
sVvalue
p97
V2
p98
sVexpiry
p99
NsVpath
p100
g10
sVsecure
p101
I00
sa(dp102
Vdomain
p103
V.wordpress.org
p104
sVname
p105
V__utmt
p106
sVvalue
p107
g38
sVexpiry
p108
I1430750696
sVpath
p109
g10
sVsecure
p110
I00
sa(dp111
Vdomain
p112
V.wordpress.org
p113
sVname
p114
V__utma
p115
sVvalue
p116
V213718802.2110116021.1430750096.1430750096.1430750096.1
p117
sVexpiry
p118
I1493822096
sVpath
p119
g10
sVsecure
p120
I00
sa(dp121
Vdomain
p122
V.wordpress.org
p123
sVname
p124
V__utmb
p125
sVvalue
p126
V213718802.1.10.1430750096
p127
sVexpiry
p128
I1430751896
sVpath
p129
g10
sVsecure
p130
I00
sa(dp131
Vdomain
p132
V.wordpress.org
p133
sVname
p134
V__utmc
p135
sVvalue
p136
V213718802
p137
sVexpiry
p138
NsVpath
p139
g10
sVsecure
p140
I00
sa(dp141
Vdomain
p142
V.wordpress.org
p143
sVname
p144
V__utmz
p145
sVvalue
p146
V213718802.1430750096.1.1.utmcsr=(direct)|utmccn=(direct)|utmcmd=(none)
p147
sVexpiry
p148
I1446518096
sVpath
p149
g10
sVsecure
p150
I00
sa(dp151
Vdomain
p152
V.wordpress.org
p153
sVname
p154
V__qca
p155
sVvalue
p156
VP0-1076089368-1430750096520
p157
sVexpiry
p158
I1478085485
sVpath
p159
g10
sVsecure
p160
I00
sa(dp161
Vdomain
p162
V.google.com
p163
sVname
p164
VNID
p165
sVvalue
p166
V67=ZF1geqwMpDLSwio1j1Rb-VSp1E-wJswZO1FOBreNrMOMQkz7dTgqh46_QIJcSdIcRh48OR0Is2N1BrAOU3bE-zLTaW9ZHnDb1dTo8YuGAn0Np-n-kCYpbHDNgm7R1dLJ
p167
sVexpiry
p168
I1446561295
sVpath
p169
g10
sVsecure
p170
I00
sa(dp171
Vdomain
p172
Vaccounts.google.com
p173
sVname
p174
VGAPS
p175
sVvalue
p176
V1:xx4LbNeB2sxQcvK6YLXu17cn8ikkag:F09L7z-3YNaRtTto
p177
sVexpiry
p178
I1493822098
sVpath
p179
g10
sVsecure
p180
I01
sa(dp181
Vdomain
p182
Vaccounts.google.com
p183
sVname
p184
VGALX
p185
sVvalue
p186
Vz_9OrDu48OE
p187
sVexpiry
p188
NsVpath
p189
g10
sVsecure
p190
I01
sa(dp191
Vdomain
p192
Vwww.joomla.org
p193
sVname
p194
V912b085b9213021200bd7086c0dbccc9
p195
sVvalue
p196
Vd926917670244eaf947fcf179c34da11
p197
sVexpiry
p198
NsVpath
p199
g10
sVsecure
p200
I00
sa(dp201
Vdomain
p202
V.joomla.org
p203
sVname
p204
V__utmt
p205
sVvalue
p206
g38
sVexpiry
p207
I1430750703
sVpath
p208
g10
sVsecure
p209
I00
sa(dp210
Vdomain
p211
V.joomla.org
p212
sVname
p213
V__utma
p214
sVvalue
p215
V11952431.268414708.1430750103.1430750103.1430750103.1
p216
sVexpiry
p217
I1493822103
sVpath
p218
g10
sVsecure
p219
I00
sa(dp220
Vdomain
p221
V.joomla.org
p222
sVname
p223
V__utmb
p224
sVvalue
p225
V11952431.1.10.1430750103
p226
sVexpiry
p227
I1430751903
sVpath
p228
g10
sVsecure
p229
I00
sa(dp230
Vdomain
p231
V.joomla.org
p232
sVname
p233
V__utmc
p234
sVvalue
p235
V11952431
p236
sVexpiry
p237
NsVpath
p238
g10
sVsecure
p239
I00
sa(dp240
Vdomain
p241
V.joomla.org
p242
sVname
p243
V__utmz
p244
sVvalue
p245
V11952431.1430750103.1.1.utmcsr=(direct)|utmccn=(direct)|utmcmd=(none)
p246
sVexpiry
p247
I1446518103
sVpath
p248
g10
sVsecure
p249
I00
sa(dp250
Vdomain
p251
V.joomla.org
p252
sVname
p253
V__CG
p254
sVvalue
p255
Vu%3A3902253691564807000%2Cs%3A272201823%2Ct%3A1430750103372%2Cc%3A1%2Ck%3Awww.joomla.org/22/22/38%2Cf%3A1%2Ci%3A1
p256
sVexpiry
p257
I1462286103
sVpath
p258
g10
sVsecure
p259
I00
sa(dp260
Vdomain
p261
V.vimeo.com
p262
sVname
p263
Vvuid
p264
sVvalue
p265
V978052856.1629552628
p266
sVexpiry
p267
I1462286108
sVpath
p268
g10
sVsecure
p269
I00
sa(dp270
Vdomain
p271
V.vimeo.com
p272
sVname
p273
V__utma
p274
sVvalue
p275
V18302654.123491038.1430750108.1430750108.1430750108.1
p276
sVexpiry
p277
I1493822108
sVpath
p278
g10
sVsecure
p279
I00
sa(dp280
Vdomain
p281
V.vimeo.com
p282
sVname
p283
V__utmb
p284
sVvalue
p285
V18302654.1.10.1430750108
p286
sVexpiry
p287
I1430751908
sVpath
p288
g10
sVsecure
p289
I00
sa(dp290
Vdomain
p291
V.vimeo.com
p292
sVname
p293
V__utmc
p294
sVvalue
p295
V18302654
p296
sVexpiry
p297
NsVpath
p298
g10
sVsecure
p299
I00
sa(dp300
Vdomain
p301
V.vimeo.com
p302
sVname
p303
V__utmz
p304
sVvalue
p305
V18302654.1430750108.1.1.utmcsr=(direct)|utmccn=(direct)|utmcmd=(none)
p306
sVexpiry
p307
I1446518108
sVpath
p308
g10
sVsecure
p309
I00
sa(dp310
Vdomain
p311
V.vimeo.com
p312
sVname
p313
V__utmv
p314
sVvalue
p315
V18302654.|3=ms=0=1^10=vuid=978052856.1629552628=1
p316
sVexpiry
p317
I1493822108
sVpath
p318
g10
sVsecure
p319
I00
sa(dp320
Vdomain
p321
V.yahoo.com
p322
sVname
p323
VB
p324
sVvalue
p325
Veuilru5akf0sv&b=3&s=4t
p326
sVexpiry
p327
I1493908512
sVpath
p328
g10
sVsecure
p329
I00
sa(dp330
Vdomain
p331
Vwww.yahoo.com
p332
sVname
p333
VFBJSC
p334
sVvalue
p335
V1430750111
p336
sVexpiry
p337
NsVpath
p338
g10
sVsecure
p339
I00
sa(dp340
Vdomain
p341
V.www.yahoo.com
p342
sVname
p343
Vhpc
p344
sVvalue
p345
Vd=SSMtYvPlrFCDCJ4GIDJS54ZjP9Xw8heJC4T8ghDLiYSh8OQmPsCIluPoWGVCM5oYEyvuR1Hi6p1HxM3JeNlZ93IgXvHm_TeuKXibd_prvkfY3q6A6sv_AbQTMsLD_ESIIoJzSVW1YCIaCtPzWwxMsZJjVl7WtAA2B6hbmMMkPXw7lWuwPKRgaWQuJmUNyQPxWEbYfYc-&v=2
p346
sVexpiry
p347
I1462242911
sVpath
p348
g10
sVsecure
p349
I00
sa(dp350
Vdomain
p351
V.www.yahoo.com
p352
sVname
p353
Vfpt
p354
sVvalue
p355
Vd=H3getYDRed2.V9CcRGE9G7HJxPtpGDUE6Ot.bL7WFyDOfTusCtRycPaksUqFXnyvsVtoToOYS2OE7w2m5d2aT_XDbRjy&v=1
p356
sVexpiry
p357
NsVpath
p358
g10
sVsecure
p359
I00
sa(dp360
Vdomain
p361
V.yahoo.com
p362
sVname
p363
VHP
p364
sVvalue
p365
V0
p366
sVexpiry
p367
NsVpath
p368
g10
sVsecure
p369
I00
sa(dp370
Vdomain
p371
V.wordpress.com
p372
sVname
p373
Vref
p374
sVvalue
p375
Vlof
p376
sVexpiry
p377
NsVpath
p378
g10
sVsecure
p379
I00
sa(dp380
Vdomain
p381
V.signup.wordpress.com
p382
sVname
p383
V__utmt
p384
sVvalue
p385
g38
sVexpiry
p386
I1430750723
sVpath
p387
g10
sVsecure
p388
I00
sa(dp389
Vdomain
p390
V.signup.wordpress.com
p391
sVname
p392
V__utma
p393
sVvalue
p394
V228142623.1193051608.1430750123.1430750123.1430750123.1
p395
sVexpiry
p396
I1493822123
sVpath
p397
g10
sVsecure
p398
I00
sa(dp399
Vdomain
p400
V.signup.wordpress.com
p401
sVname
p402
V__utmb
p403
sVvalue
p404
V228142623.1.10.1430750123
p405
sVexpiry
p406
I1430751923
sVpath
p407
g10
sVsecure
p408
I00
sa(dp409
Vdomain
p410
V.signup.wordpress.com
p411
sVname
p412
V__utmc
p413
sVvalue
p414
V228142623
p415
sVexpiry
p416
NsVpath
p417
g10
sVsecure
p418
I00
sa(dp419
Vdomain
p420
V.signup.wordpress.com
p421
sVname
p422
V__utmz
p423
sVvalue
p424
V228142623.1430750123.1.1.utmcsr=(direct)|utmccn=(direct)|utmcmd=(none)
p425
sVexpiry
p426
I1446518123
sVpath
p427
g10
sVsecure
p428
I00
sa(dp429
Vdomain
p430
V.wordpress.com
p431
sVname
p432
V__utmt_pageload
p433
sVvalue
p434
g38
sVexpiry
p435
I1430750723
sVpath
p436
g10
sVsecure
p437
I00
sa(dp438
Vdomain
p439
V.wordpress.com
p440
sVname
p441
V__utma
p442
sVvalue
p443
V214977736.841267325.1430750123.1430750123.1430750123.1
p444
sVexpiry
p445
I1493822123
sVpath
p446
g10
sVsecure
p447
I00
sa(dp448
Vdomain
p449
V.wordpress.com
p450
sVname
p451
V__utmb
p452
sVvalue
p453
V214977736.1.10.1430750123
p454
sVexpiry
p455
I1430751923
sVpath
p456
g10
sVsecure
p457
I00
sa(dp458
Vdomain
p459
V.wordpress.com
p460
sVname
p461
V__utmc
p462
sVvalue
p463
V214977736
p464
sVexpiry
p465
NsVpath
p466
g10
sVsecure
p467
I00
sa(dp468
Vdomain
p469
V.wordpress.com
p470
sVname
p471
V__utmz
p472
sVvalue
p473
V214977736.1430750123.1.1.utmcsr=(direct)|utmccn=(direct)|utmcmd=(none)
p474
sVexpiry
p475
I1446518123
sVpath
p476
g10
sVsecure
p477
I00
sa(dp478
Vdomain
p479
V.wordpress.com
p480
sVname
p481
Vtk_tc
p482
sVvalue
p483
V1430750123609
p484
sVexpiry
p485
NsVpath
p486
g10
sVsecure
p487
I00
sa(dp488
Vdomain
p489
V.wordpress.com
p490
sVname
p491
Vtk_ai
p492
sVvalue
p493
Vmjl2ORlleDK0hX5gMcVZlxuc
p494
sVexpiry
p495
I1588430123
sVpath
p496
g10
sVsecure
p497
I00
sa(dp498
Vdomain
p499
V.wordpress.com
p500
sVname
p501
Vtk_qs
p502
sVvalue
p503
V
p504
sVexpiry
p505
I1430751924
sVpath
p506
g10
sVsecure
p507
I00
sa(dp508
Vdomain
p509
V.youtube.com
p510
sVname
p511
VYSC
p512
sVvalue
p513
V74Co8b4XTuM
p514
sVexpiry
p515
NsVpath
p516
g10
sVsecure
p517
I00
sa(dp518
Vdomain
p519
V.youtube.com
p520
sVname
p521
VVISITOR_INFO1_LIVE
p522
sVvalue
p523
V-XvMjLD3ZhM
p524
sVexpiry
p525
I1451788083
sVpath
p526
g10
sVsecure
p527
I00
sa(dp528
Vdomain
p529
V.youtube.com
p530
sVname
p531
VPREF
p532
sVvalue
p533
Vf5=30&f4=4000000
p534
sVexpiry
p535
I1493822135
sVpath
p536
g10
sVsecure
p537
I00
sa(dp538
Vdomain
p539
V.wordpress.com
p540
sVname
p541
Vref
p542
sVvalue
p543
Vlof
p544
sVexpiry
p545
NsVpath
p546
g10
sVsecure
p547
I00
sa(dp548
Vdomain
p549
V.wordpress.com
p550
sVname
p551
V__utmt_pageload
p552
sVvalue
p553
g38
sVexpiry
p554
I1430750723
sVpath
p555
g10
sVsecure
p556
I00
sa(dp557
Vdomain
p558
V.wordpress.com
p559
sVname
p560
Vtk_ai
p561
sVvalue
p562
Vmjl2ORlleDK0hX5gMcVZlxuc
p563
sVexpiry
p564
I1588430123
sVpath
p565
g10
sVsecure
p566
I00
sa(dp567
Vdomain
p568
V.wordpress.com
p569
sVname
p570
Vkm_ai
p571
sVvalue
p572
V2iu8gKdjKaLDmUfKZ8Us7C0Umnw%3D
p573
sVexpiry
p574
I1588430125
sVpath
p575
g10
sVsecure
p576
I00
sa(dp577
Vdomain
p578
V.wordpress.com
p579
sVname
p580
Vkvcd
p581
sVvalue
p582
V1430750139927
p583
sVexpiry
p584
NsVpath
p585
g10
sVsecure
p586
I00
sa(dp587
Vdomain
p588
V.wordpress.com
p589
sVname
p590
Vkm_lv
p591
sVvalue
p592
V1430750140
p593
sVexpiry
p594
I1588430139
sVpath
p595
g10
sVsecure
p596
I00
sa(dp597
Vdomain
p598
V.wordpress.com
p599
sVname
p600
Vtk_tc
p601
sVvalue
p602
V1430750140010
p603
sVexpiry
p604
NsVpath
p605
g10
sVsecure
p606
I00
sa(dp607
Vdomain
p608
V.wordpress.com
p609
sVname
p610
Vtk_qs
p611
sVvalue
p612
g504
sVexpiry
p613
I1430751940
sVpath
p614
g10
sVsecure
p615
I00
sa(dp616
Vdomain
p617
V.wordpress.com
p618
sVname
p619
Vkm_uq
p620
sVvalue
p621
g504
sVexpiry
p622
I1588430140
sVpath
p623
g10
sVsecure
p624
I00
sa(dp625
Vdomain
p626
V.wordpress.com
p627
sVname
p628
V__utma
p629
sVvalue
p630
V214977736.841267325.1430750123.1430750123.1430750123.1
p631
sVexpiry
p632
I1493822140
sVpath
p633
g10
sVsecure
p634
I00
sa(dp635
Vdomain
p636
V.wordpress.com
p637
sVname
p638
V__utmb
p639
sVvalue
p640
V214977736.2.10.1430750123
p641
sVexpiry
p642
I1430751940
sVpath
p643
g10
sVsecure
p644
I00
sa(dp645
Vdomain
p646
V.wordpress.com
p647
sVname
p648
V__utmc
p649
sVvalue
p650
V214977736
p651
sVexpiry
p652
NsVpath
p653
g10
sVsecure
p654
I00
sa(dp655
Vdomain
p656
V.wordpress.com
p657
sVname
p658
V__utmz
p659
sVvalue
p660
V214977736.1430750123.1.1.utmcsr=(direct)|utmccn=(direct)|utmcmd=(none)
p661
sVexpiry
p662
I1446518140
sVpath
p663
g10
sVsecure
p664
I00
sa(dp665
Vdomain
p666
V.adobe.com
p667
sVname
p668
VREADER_HTTPREFERER
p669
sVvalue
p670
g504
sVexpiry
p671
NsVpath
p672
g10
sVsecure
p673
I00
sa(dp674
Vdomain
p675
V.adobe.com
p676
sVname
p677
VREADER_AB
p678
sVvalue
p679
Vlive
p680
sVexpiry
p681
I1430760950
sVpath
p682
g10
sVsecure
p683
I00
sa(dp684
Vdomain
p685
V.adobe.com
p686
sVname
p687
VREADER_NEW_USER
p688
sVvalue
p689
Vtrue
p690
sVexpiry
p691
NsVpath
p692
g10
sVsecure
p693
I00
sa.